target datalayout = "e-m:e-p270:32:32-p271:32:32-p272:64:64-i64:64-i128:128-f80:128-n8:16:32:64-S128"
target triple = "x86_64-pc-linux-gnu"

%class.ReservedSpace = type <{ ptr, i64, i64, i64, i64, i8, [3 x i8], i32, i8, [7 x i8] }>

@_ZN13ReservedSpaceC1EPcmmmbb = hidden unnamed_addr alias void (ptr, ptr, i64, i64, i64, i1, i1), ptr @_ZN13ReservedSpaceC2EPcmmmbb

; Function Attrs: mustprogress nounwind uwtable
define linkonce_odr hidden noundef zeroext i1 @_ZNK13ReservedSpace10executableEv(ptr noundef nonnull align 8 dereferenceable(49) %0) #1 comdat align 2 {
  %2 = alloca ptr, align 8
  store ptr %0, ptr %2, align 8
  %3 = load ptr, ptr %2, align 8
  %4 = getelementptr inbounds %class.ReservedSpace, ptr %3, i32 0, i32 8
  %5 = load i8, ptr %4, align 8
  %6 = trunc i8 %5 to i1
  ret i1 %6
}

; Function Attrs: mustprogress nounwind uwtable
define linkonce_odr hidden noundef zeroext i1 @_ZNK13ReservedSpace7specialEv(ptr noundef nonnull align 8 dereferenceable(49) %0) #1 comdat align 2 {
  %2 = alloca ptr, align 8
  store ptr %0, ptr %2, align 8
  %3 = load ptr, ptr %2, align 8
  %4 = getelementptr inbounds %class.ReservedSpace, ptr %3, i32 0, i32 5
  %5 = load i8, ptr %4, align 8
  %6 = trunc i8 %5 to i1
  ret i1 %6
}

; Function Attrs: mustprogress nounwind uwtable
define linkonce_odr hidden noundef i64 @_ZNK13ReservedSpace9page_sizeEv(ptr noundef nonnull align 8 dereferenceable(49) %0) #1 comdat align 2 {
  %2 = alloca ptr, align 8
  store ptr %0, ptr %2, align 8
  %3 = load ptr, ptr %2, align 8
  %4 = getelementptr inbounds %class.ReservedSpace, ptr %3, i32 0, i32 4
  %5 = load i64, ptr %4, align 8
  ret i64 %5
}

; Function Attrs: mustprogress nounwind uwtable
define linkonce_odr hidden noundef i64 @_ZNK13ReservedSpace4sizeEv(ptr noundef nonnull align 8 dereferenceable(49) %0) #1 comdat align 2 {
  %2 = alloca ptr, align 8
  store ptr %0, ptr %2, align 8
  %3 = load ptr, ptr %2, align 8
  %4 = getelementptr inbounds %class.ReservedSpace, ptr %3, i32 0, i32 1
  %5 = load i64, ptr %4, align 8
  ret i64 %5
}

; Function Attrs: mustprogress nounwind uwtable
define linkonce_odr hidden noundef ptr @_ZNK13ReservedSpace4baseEv(ptr noundef nonnull align 8 dereferenceable(49) %0) #1 comdat align 2 {
  %2 = alloca ptr, align 8
  store ptr %0, ptr %2, align 8
  %3 = load ptr, ptr %2, align 8
  %4 = getelementptr inbounds %class.ReservedSpace, ptr %3, i32 0, i32 0
  %5 = load ptr, ptr %4, align 8
  ret ptr %5
}

; Function Attrs: mustprogress nounwind uwtable
define hidden void @_ZN13ReservedSpace9last_partEmm(ptr dead_on_unwind noalias writable sret(%class.ReservedSpace) align 8 %0, ptr noundef nonnull align 8 dereferenceable(49) %1, i64 noundef %2, i64 noundef %3) #1 align 2 {
  %5 = alloca ptr, align 8
  %6 = alloca i64, align 8
  %7 = alloca i64, align 8
  store ptr %1, ptr %5, align 8
  store i64 %2, ptr %6, align 8
  store i64 %3, ptr %7, align 8
  %8 = load ptr, ptr %5, align 8
  %9 = call noundef ptr @_ZNK13ReservedSpace4baseEv(ptr noundef nonnull align 8 dereferenceable(49) %8)
  %10 = load i64, ptr %6, align 8
  %11 = getelementptr inbounds i8, ptr %9, i64 %10
  %12 = call noundef i64 @_ZNK13ReservedSpace4sizeEv(ptr noundef nonnull align 8 dereferenceable(49) %8)
  %13 = load i64, ptr %6, align 8
  %14 = sub i64 %12, %13
  %15 = load i64, ptr %7, align 8
  %16 = call noundef i64 @_ZNK13ReservedSpace9page_sizeEv(ptr noundef nonnull align 8 dereferenceable(49) %8)
  %17 = call noundef zeroext i1 @_ZNK13ReservedSpace7specialEv(ptr noundef nonnull align 8 dereferenceable(49) %8)
  %18 = call noundef zeroext i1 @_ZNK13ReservedSpace10executableEv(ptr noundef nonnull align 8 dereferenceable(49) %8)
  call void @_ZN13ReservedSpaceC1EPcmmmbb(ptr noundef nonnull align 8 dereferenceable(49) %0, ptr noundef %11, i64 noundef %14, i64 noundef %15, i64 noundef %16, i1 noundef zeroext %17, i1 noundef zeroext %18)
  ret void
}