; Function Attrs: mustprogress nofree norecurse nosync nounwind willreturn memory(argmem: readwrite) uwtable
define hidden void @_ZN13ReservedSpace9last_partEmm(ptr dead_on_unwind noalias nocapture writable writeonly sret(%class.ReservedSpace) align 8 %0, ptr nocapture noundef nonnull readonly align 8 dereferenceable(49) %1, i64 noundef %2, i64 noundef %3) local_unnamed_addr #3 align 2 {
  %5 = load ptr, ptr %1, align 8
  %6 = getelementptr inbounds i8, ptr %5, i64 %2
  %7 = getelementptr inbounds i8, ptr %1, i64 8
  %8 = load i64, ptr %7, align 8
  %9 = sub i64 %8, %2
  %10 = getelementptr inbounds i8, ptr %1, i64 32
  %11 = load i64, ptr %10, align 8
  %12 = getelementptr inbounds i8, ptr %1, i64 40
  %13 = load i8, ptr %12, align 8
  %14 = getelementptr inbounds i8, ptr %1, i64 48
  %15 = load i8, ptr %14, align 8
  %16 = getelementptr inbounds i8, ptr %0, i64 44
  store i32 -1, ptr %16, align 4
  %17 = and i8 %13, 1
  %18 = and i8 %15, 1
  store ptr %6, ptr %0, align 8
  %19 = getelementptr inbounds i8, ptr %0, i64 8
  store i64 %9, ptr %19, align 8
  %20 = getelementptr inbounds i8, ptr %0, i64 24
  store i64 %3, ptr %20, align 8
  %21 = getelementptr inbounds i8, ptr %0, i64 32
  store i64 %11, ptr %21, align 8
  %22 = getelementptr inbounds i8, ptr %0, i64 40
  store i8 %17, ptr %22, align 8
  %23 = getelementptr inbounds i8, ptr %0, i64 48
  store i8 %18, ptr %23, align 8
  %24 = getelementptr inbounds i8, ptr %0, i64 16
  store i64 0, ptr %24, align 8
  ret void
}